; Function Attrs: nounwind uwtable
define internal fastcc range(i32 -2147483648, 1) i32 @stack_filename(ptr noundef nonnull %0, ptr noundef readonly captures(none) %1, ptr noundef %2) unnamed_addr #0 {
  tail call void @reftable_buf_reset(ptr noundef nonnull %0) #16
  %4 = getelementptr inbounds nuw i8, ptr %1, i64 160
  %5 = load ptr, ptr %4, align 8, !tbaa !29
  %6 = tail call i32 @reftable_buf_addstr(ptr noundef nonnull %0, ptr noundef %5) #16
  %7 = icmp slt i32 %6, 0
  br i1 %7, label %13, label %8

8:                                                ; preds = %3
  %9 = tail call i32 @reftable_buf_addstr(ptr noundef nonnull %0, ptr noundef nonnull @.str.5) #16
  %10 = icmp slt i32 %9, 0
  br i1 %10, label %13, label %11

11:                                               ; preds = %8
  %12 = tail call i32 @reftable_buf_addstr(ptr noundef nonnull %0, ptr noundef %2) #16
  %spec.select = tail call i32 @llvm.smin.i32(i32 %12, i32 0)
  br label %13

13:                                               ; preds = %11, %3, %8
  %.07 = phi i32 [ %6, %3 ], [ %9, %8 ], [ %spec.select, %11 ]
  ret i32 %.07
}